; Function Attrs: mustprogress uwtable
define hidden void @_ZN6cineon6Reader11SetInStreamEPNS_8InStreamE(ptr nocapture noundef nonnull align 8 dereferenceable(2080) %this, ptr noundef %fd) local_unnamed_addr #4 align 2 personality ptr @__gxx_personality_v0 {
entry:
  %fd2 = getelementptr inbounds i8, ptr %this, i64 2056
  store ptr %fd, ptr %fd2, align 8
  %codec.i = getelementptr inbounds i8, ptr %this, i64 2064
  %0 = load ptr, ptr %codec.i, align 8
  %isnull.i = icmp eq ptr %0, null
  br i1 %isnull.i, label %delete.end.i, label %delete.notnull.i

delete.notnull.i:                                 ; preds = %entry
  %vtable.i = load ptr, ptr %0, align 8
  %vfn.i = getelementptr inbounds i8, ptr %vtable.i, i64 8
  %1 = load ptr, ptr %vfn.i, align 8
  tail call void %1(ptr noundef nonnull align 8 dereferenceable(16) %0) #10
  br label %delete.end.i

delete.end.i:                                     ; preds = %delete.notnull.i, %entry
  store ptr null, ptr %codec.i, align 8
  %rio.i = getelementptr inbounds i8, ptr %this, i64 2072
  %2 = load ptr, ptr %rio.i, align 8
  %tobool.not.i = icmp eq ptr %2, null
  br i1 %tobool.not.i, label %if.end.i, label %delete.notnull5.i

delete.notnull5.i:                                ; preds = %delete.end.i
  %vtable6.i = load ptr, ptr %2, align 8
  %vfn7.i = getelementptr inbounds i8, ptr %vtable6.i, i64 8
  %3 = load ptr, ptr %vfn7.i, align 8
  tail call void %3(ptr noundef nonnull align 8 dereferenceable(16) %2) #10
  store ptr null, ptr %rio.i, align 8
  br label %if.end.i

if.end.i:                                         ; preds = %delete.notnull5.i, %delete.end.i
  %4 = load ptr, ptr %fd2, align 8
  %tobool10.not.i = icmp eq ptr %4, null
  br i1 %tobool10.not.i, label %_ZN6cineon6Reader5ResetEv.exit, label %if.then11.i

if.then11.i:                                      ; preds = %if.end.i
  %call.i = tail call noalias noundef nonnull dereferenceable(16) ptr @_Znwm(i64 noundef 16) #11
  invoke void @_ZN6cineon17ElementReadStreamC1EPNS_8InStreamE(ptr noundef nonnull align 8 dereferenceable(16) %call.i, ptr noundef nonnull %4)
          to label %invoke.cont.i unwind label %lpad.i

invoke.cont.i:                                    ; preds = %if.then11.i
  store ptr %call.i, ptr %rio.i, align 8
  br label %_ZN6cineon6Reader5ResetEv.exit

lpad.i:                                           ; preds = %if.then11.i
  %5 = landingpad { ptr, i32 }
          cleanup
  tail call void @_ZdlPv(ptr noundef nonnull %call.i) #12
  resume { ptr, i32 } %5

_ZN6cineon6Reader5ResetEv.exit:                   ; preds = %if.end.i, %invoke.cont.i
  ret void
}